; Function Attrs: mustprogress nofree norecurse nosync nounwind willreturn memory(read, argmem: readwrite, inaccessiblemem: none) uwtable
define void @_ZN5arrow2io12ReadableFile9DoGetSizeEv(ptr noalias nocapture writeonly sret(%"class.arrow::Result.28") align 8 %agg.result, ptr nocapture noundef nonnull readonly align 8 dereferenceable(48) %this) local_unnamed_addr #9 align 2 {
entry:
  %impl_ = getelementptr inbounds i8, ptr %this, i64 40
  %0 = load ptr, ptr %impl_, align 8
  %size_.i = getelementptr inbounds i8, ptr %0, i64 56
  %1 = load i64, ptr %size_.i, align 8
  store ptr null, ptr %agg.result, align 8
  %storage_.i.i = getelementptr inbounds i8, ptr %agg.result, i64 8
  store i64 %1, ptr %storage_.i.i, align 8
  ret void
}